target datalayout = "e-m:e-p270:32:32-p271:32:32-p272:64:64-i64:64-i128:128-f80:128-n8:16:32:64-S128"
target triple = "x86_64-pc-linux-gnu"

; Function Attrs: nounwind uwtable
define internal i32 @ipairsaux(ptr noundef %0) #0 {
  %2 = alloca ptr, align 8
  %3 = alloca i32, align 4
  store ptr %0, ptr %2, align 8, !tbaa !4
  call void @llvm.lifetime.start.p0(i64 4, ptr %3) #5
  %4 = load ptr, ptr %2, align 8, !tbaa !4
  %5 = call i64 @luaL_checkinteger(ptr noundef %4, i32 noundef 2)
  %6 = trunc i64 %5 to i32
  store i32 %6, ptr %3, align 4, !tbaa !12
  %7 = load ptr, ptr %2, align 8, !tbaa !4
  call void @luaL_checktype(ptr noundef %7, i32 noundef 1, i32 noundef 5)
  %8 = load i32, ptr %3, align 4, !tbaa !12
  %9 = add nsw i32 %8, 1
  store i32 %9, ptr %3, align 4, !tbaa !12
  %10 = load ptr, ptr %2, align 8, !tbaa !4
  %11 = load i32, ptr %3, align 4, !tbaa !12
  %12 = sext i32 %11 to i64
  call void @lua_pushinteger(ptr noundef %10, i64 noundef %12)
  %13 = load ptr, ptr %2, align 8, !tbaa !4
  %14 = load i32, ptr %3, align 4, !tbaa !12
  call void @lua_rawgeti(ptr noundef %13, i32 noundef 1, i32 noundef %14)
  %15 = load ptr, ptr %2, align 8, !tbaa !4
  %16 = call i32 @lua_type(ptr noundef %15, i32 noundef -1)
  %17 = icmp eq i32 %16, 0
  %18 = select i1 %17, i32 0, i32 2
  call void @llvm.lifetime.end.p0(i64 4, ptr %3) #5
  ret i32 %18
}