; Function Attrs: nounwind uwtable
define internal range(i32 0, 3) i32 @ipairsaux(ptr noundef %0) #0 {
  %2 = tail call i64 @luaL_checkinteger(ptr noundef %0, i32 noundef 2) #8
  %3 = trunc i64 %2 to i32
  tail call void @luaL_checktype(ptr noundef %0, i32 noundef 1, i32 noundef 5) #8
  %4 = add nsw i32 %3, 1
  %5 = sext i32 %4 to i64
  tail call void @lua_pushinteger(ptr noundef %0, i64 noundef %5) #8
  tail call void @lua_rawgeti(ptr noundef %0, i32 noundef 1, i32 noundef %4) #8
  %6 = tail call i32 @lua_type(ptr noundef %0, i32 noundef -1) #8
  %7 = icmp eq i32 %6, 0
  %8 = select i1 %7, i32 0, i32 2
  ret i32 %8
}